(dp0
S'offset0'
p1
cnumpy.core.multiarray
scalar
p2
(cnumpy
dtype
p3
(S'f8'
p4
I0
I1
tp5
Rp6
(I3
S'<'
p7
NNNI-1
I-1
I0
tp8
bS'\x9a\x10;\x126\x03p\xbf'
p9
tp10
Rp11
sS'offset1'
p12
g2
(g6
S']\xad\xa3\xfd\xfb4p\xbf'
p13
tp14
Rp15
sS'offset2'
p16
g2
(g6
S'\x00\\\xfe\xdf\xc2Ri\xbf'
p17
tp18
Rp19
sS'rho_4'
p20
F2.3399999999999999
sS'energy1'
p21
F12.119
sS'energy0'
p22
F8.0
sS'rho_1'
p23
g2
(g6
S'\xf4\x14Mkx\xcf\x02@'
p24
tp25
Rp26
sS'rho_0'
p27
F0.00125
sS'rho_3'
p28
g2
(g6
S'K\xb3n0AW\x05@'
p29
tp30
Rp31
sS'rho_2'
p32
g2
(g6
S'^\xa0\x9a\xd9\x0c\xbf/@'
p33
tp34
Rp35
sS'sigma_4'
p36
F2.0
sS'd_2'
p37
g2
(g6
S'`\xa8z\xd09\xbb\x1b@'
p38
tp39
Rp40
sS'd_3'
p41
g2
(g6
S'l \x14\x83\x9f\x9c*@'
p42
tp43
Rp44
sS'd_0'
p45
F0.0
sS'd_1'
p46
g2
(g6
S'2\x93\xc0yP\xa2R@'
p47
tp48
Rp49
sS'background2'
p50
g2
(g6
S'\xd6Y\xe7$\xa3\x02\x0f\xc0'
p51
tp52
Rp53
sS'd_4'
p54
I0
sS'background0'
p55
g2
(g6
S'\x1f\x1a\xcd\x01\xc6\x83\x1a\xc0'
p56
tp57
Rp58
sS'LayerCount'
p59
(lp60
I1
aI1
aI2
aI1
asS'scale0'
p61
F1.0
sS'scale1'
p62
F1.0
sS'scale2'
p63
F1.0
sS'N'
p64
(lp65
I1
aI1
aI250
aI1
asS'resolution1'
p66
F0.001
sS'resolution0'
p67
F0.001
sS'resolution2'
p68
F0.001
sS'energy2'
p69
F24.0
sS'sigma_3'
p70
g2
(g6
S'1\xbf\xc98t\x92\x01@'
p71
tp72
Rp73
sS'sigma_2'
p74
g2
(g6
S'8\xc8\xfc\xba~\xe1\x02@'
p75
tp76
Rp77
sS'sigma_1'
p78
g2
(g6
S'g\x1f\x86\xe4\x12\xfc\x02@'
p79
tp80
Rp81
sS'sigma_0'
p82
g2
(g6
S'0m\xf1\xc89\xcf&@'
p83
tp84
Rp85
sS'grad_d_0'
p86
F0.0
sS'grad_d_1'
p87
F0.0
sS'grad_d_2'
p88
F0.0
sS'grad_d_3'
p89
F0.0
sS'background1'
p90
g2
(g6
S'\xef^\xfd\xc1\x01\x8c\x19\xc0'
p91
tp92
Rp93
s.