(dp0
S'rho_20'
p1
cnumpy.core.multiarray
scalar
p2
(cnumpy
dtype
p3
(S'f8'
p4
I0
I1
tp5
Rp6
(I3
S'<'
p7
NNNI-1
I-1
I0
tp8
bS'\xf1\xbd\xa9C|U.@'
p9
tp10
Rp11
sS'rho_21'
p12
g2
(g6
S'\x8eP6\t=T\x02@'
p13
tp14
Rp15
sS'rho_22'
p16
g11
sS'rho_23'
p17
g15
sS'rho_24'
p18
g11
sS'rho_25'
p19
g15
sS'rho_26'
p20
g11
sS'rho_27'
p21
g15
sS'rho_28'
p22
g11
sS'rho_29'
p23
g15
sS'd_8'
p24
g2
(g6
S'Z\x1b\x12/\xeaB\x1b@'
p25
tp26
Rp27
sS'd_9'
p28
g2
(g6
S'\x7f..+h\xb1*@'
p29
tp30
Rp31
sS'd_2'
p32
g2
(g6
S'CO\xf2\xf9V4\x1b@'
p33
tp34
Rp35
sS'd_3'
p36
g2
(g6
S'\xc1\xa8y\xa1\xf4\xff*@'
p37
tp38
Rp39
sS'd_0'
p40
F0.0
sS'd_1'
p41
g2
(g6
S'\x1cT`\xeb_\xd2Q@'
p42
tp43
Rp44
sS'd_6'
p45
g2
(g6
S'\xbfo\xe5\xf3\xd6N\x1b@'
p46
tp47
Rp48
sS'd_7'
p49
g2
(g6
S'#\xb3F\xf8\xb0\xd1*@'
p50
tp51
Rp52
sS'd_4'
p53
g2
(g6
S'{o^\xb0]\xf3\x1a@'
p54
tp55
Rp56
sS'background0'
p57
g2
(g6
S'\x87\x82?,\xf2\x8b\x1a\xc0'
p58
tp59
Rp60
sS'd_18'
p61
g2
(g6
S'\x85\x8b?\xf0\x8f\n\x1b@'
p62
tp63
Rp64
sS'd_19'
p65
g2
(g6
S'\xac\xe0\xa7\x08\xa0\x02+@'
p66
tp67
Rp68
sS'd_14'
p69
g2
(g6
S'B\xe5\xe8\xbe\x9eF\x1b@'
p70
tp71
Rp72
sS'd_15'
p73
g2
(g6
S'e\xd7\x0b\xb7\xa1\xe9*@'
p74
tp75
Rp76
sS'd_16'
p77
g2
(g6
S'o\t\xbcG\xa5H\x1b@'
p78
tp79
Rp80
sS'rho_34'
p81
F2.3399999999999999
sS'd_10'
p82
g2
(g6
S'\xe2t+C<h\x1b@'
p83
tp84
Rp85
sS'd_11'
p86
g2
(g6
S'9-\xa1 \r\xf1*@'
p87
tp88
Rp89
sS'd_12'
p90
g2
(g6
S'\tj\xaf\xe2q4\x1b@'
p91
tp92
Rp93
sS'd_13'
p94
g2
(g6
S'\x13\xd5\x81M~\xab*@'
p95
tp96
Rp97
sS'sigma_9'
p98
g2
(g6
S'\xd0\x93`d\xdd\x8e\x03@'
p99
tp100
Rp101
sS'sigma_8'
p102
g2
(g6
S'\x1f\xd4m\xda%\xcd\x01@'
p103
tp104
Rp105
sS'sigma_3'
p106
g2
(g6
S'\xb0\x81\xa4+W\x96\x03@'
p107
tp108
Rp109
sS'sigma_2'
p110
g2
(g6
S'\xda0\xb8\xc7\xaf\xf8\x01@'
p111
tp112
Rp113
sS'sigma_1'
p114
g2
(g6
S'\xe3F\xdb\xdf\xd6{\x05@'
p115
tp116
Rp117
sS'sigma_0'
p118
g2
(g6
S'\xbc\x98\x9f5\x89D#@'
p119
tp120
Rp121
sS'sigma_7'
p122
g2
(g6
S'\x17]G\xdftL\x03@'
p123
tp124
Rp125
sS'sigma_6'
p126
g2
(g6
S'\xd4\x99\xf1\x02\xef\xe2\x01@'
p127
tp128
Rp129
sS'grad_d_2'
p130
F0.0
sS'grad_d_3'
p131
F0.0
sS'grad_d_4'
p132
I0
sS'offset0'
p133
g2
(g6
S' \xcb\x17\x1a\xf2\x00_\xbf'
p134
tp135
Rp136
sS'offset1'
p137
g2
(g6
S'\x95\xe9\x99J\x00\xdcc\xbf'
p138
tp139
Rp140
sS'offset2'
p141
g2
(g6
S'\xa2\x14oq?\xaea\xbf'
p142
tp143
Rp144
sS'grad_d_0'
p145
F0.0
sS'grad_d_1'
p146
F0.0
sS'rho_5'
p147
g15
sS'rho_4'
p148
g11
sS'rho_7'
p149
g15
sS'energy0'
p150
F8.0
sS'rho_1'
p151
g2
(g6
S'\xc2G-\xce\xa7\x9d\xfb?'
p152
tp153
Rp154
sS'rho_0'
p155
F0.00125
sS'rho_3'
p156
g15
sS'rho_2'
p157
g11
sS'sigma_4'
p158
g2
(g6
S'\xab\x90\x9ep\xfe\xcd\x01@'
p159
tp160
Rp161
sS'rho_9'
p162
g15
sS'rho_8'
p163
g11
sS'd_26'
p164
g27
sS'sigma_19'
p165
g2
(g6
S'\x1aC\x15\x12o\x82\x03@'
p166
tp167
Rp168
sS'sigma_18'
p169
g2
(g6
S'9w}\xdai\xf4\x01@'
p170
tp171
Rp172
sS'sigma_17'
p173
g2
(g6
S'\x05-\x0c\xf4\x90\xa5\x03@'
p174
tp175
Rp176
sS'sigma_16'
p177
g2
(g6
S'HA\xba\xe1\xe5%\x02@'
p178
tp179
Rp180
sS'sigma_15'
p181
g2
(g6
S'0k\xddhQ\xdd\x03@'
p182
tp183
Rp184
sS'sigma_14'
p185
g2
(g6
S'W\x0e!\x9a\xd4\x01\x02@'
p186
tp187
Rp188
sS'sigma_13'
p189
g2
(g6
S'\x8a{Ld\xb5\x9e\x03@'
p190
tp191
Rp192
sS'sigma_12'
p193
g2
(g6
S'\x9d|\x0b\xe9\xd2\x1a\x02@'
p194
tp195
Rp196
sS'sigma_11'
p197
g2
(g6
S'\xb9\xeeJ\xf9X\x9d\x03@'
p198
tp199
Rp200
sS'sigma_10'
p201
g2
(g6
S'\xa5\xdb\x007\x19\xcf\x01@'
p202
tp203
Rp204
sS'd_32'
p205
g72
sS'd_33'
p206
g76
sS'd_30'
p207
g93
sS'd_31'
p208
g97
sS'd_34'
p209
I0
sS'rho_16'
p210
g11
sS'sigma_22'
p211
g161
sS'sigma_23'
p212
g2
(g6
S'\x84\xea\x18y\xd2s\x03@'
p213
tp214
Rp215
sS'sigma_20'
p216
g113
sS'sigma_21'
p217
g109
sS'sigma_26'
p218
g105
sS'sigma_27'
p219
g101
sS'sigma_24'
p220
g129
sS'sigma_25'
p221
g125
sS'sigma_28'
p222
g204
sS'sigma_29'
p223
g200
sS'sigma_5'
p224
g215
sS'background2'
p225
g2
(g6
S'\xb8\x95)A\xf5\x01\x0f\xc0'
p226
tp227
Rp228
sS'background1'
p229
g2
(g6
S'\xc9h\xc50\x85\xa1\x19\xc0'
p230
tp231
Rp232
sS'd_5'
p233
g2
(g6
S'N\x91\x9e\xcf\x03\xf2*@'
p234
tp235
Rp236
sS'sigma_34'
p237
F1.1000000000000001
sS'sigma_31'
p238
g192
sS'sigma_30'
p239
g196
sS'sigma_33'
p240
g184
sS'sigma_32'
p241
g188
sS'scale0'
p242
F1.0
sS'scale1'
p243
F1.0
sS'scale2'
p244
F1.0
sS'N'
p245
(lp246
I1
aI1
aI1
aI27
aI1
asS'resolution1'
p247
F0.0025000000000000001
sS'resolution0'
p248
F0.0025000000000000001
sS'resolution2'
p249
F0.0015
sS'energy2'
p250
F24.0
sS'energy1'
p251
F12.119
sS'd_25'
p252
g52
sS'd_24'
p253
g48
sS'd_27'
p254
g31
sS'rho_6'
p255
g11
sS'd_21'
p256
g39
sS'd_20'
p257
g35
sS'd_23'
p258
g236
sS'd_22'
p259
g56
sS'd_29'
p260
g89
sS'd_28'
p261
g85
sS'LayerCount'
p262
(lp263
I1
aI1
aI14
aI18
aI1
asS'rho_15'
p264
g15
sS'rho_14'
p265
g11
sS'rho_17'
p266
g15
sS'd_17'
p267
g2
(g6
S'"u\xd4\xd3\x8f\xef*@'
p268
tp269
Rp270
sS'rho_11'
p271
g15
sS'rho_10'
p272
g11
sS'rho_13'
p273
g15
sS'rho_12'
p274
g11
sS'rho_33'
p275
g15
sS'rho_19'
p276
g15
sS'rho_18'
p277
g11
sS'rho_32'
p278
g11
sS'rho_31'
p279
g15
sS'rho_30'
p280
g11
s.